target datalayout = "e-m:e-p270:32:32-p271:32:32-p272:64:64-i64:64-i128:128-f80:128-n8:16:32:64-S128"
target triple = "x86_64-pc-linux-gnu"

%struct._lv_obj_t = type { ptr, ptr, ptr, ptr, ptr, %struct.lv_area_t, i32, i16, i16 }
%struct.lv_area_t = type { i32, i32, i32, i32 }
%struct._lv_obj_class_t = type { ptr, ptr, ptr, ptr, ptr, ptr, i32, i32, i32 }

; Function Attrs: nounwind uwtable
define internal void @apply_theme_recursion(ptr noundef %0, ptr noundef %1) #0 {
  %3 = alloca ptr, align 8
  %4 = alloca ptr, align 8
  %5 = alloca ptr, align 8
  store ptr %0, ptr %3, align 8, !tbaa !10
  store ptr %1, ptr %4, align 8, !tbaa !3
  call void @llvm.lifetime.start.p0(i64 8, ptr %5) #4
  %6 = load ptr, ptr %4, align 8, !tbaa !3
  %7 = getelementptr inbounds nuw %struct._lv_obj_t, ptr %6, i32 0, i32 0
  %8 = load ptr, ptr %7, align 8, !tbaa !12
  store ptr %8, ptr %5, align 8, !tbaa !20
  %9 = load ptr, ptr %4, align 8, !tbaa !3
  %10 = getelementptr inbounds nuw %struct._lv_obj_t, ptr %9, i32 0, i32 0
  %11 = load ptr, ptr %10, align 8, !tbaa !12
  %12 = getelementptr inbounds nuw %struct._lv_obj_class_t, ptr %11, i32 0, i32 0
  %13 = load ptr, ptr %12, align 8, !tbaa !21
  %14 = icmp ne ptr %13, null
  br i1 %14, label %15, label %34

15:                                               ; preds = %2
  %16 = load ptr, ptr %4, align 8, !tbaa !3
  %17 = getelementptr inbounds nuw %struct._lv_obj_t, ptr %16, i32 0, i32 0
  %18 = load ptr, ptr %17, align 8, !tbaa !12
  %19 = getelementptr inbounds nuw %struct._lv_obj_class_t, ptr %18, i32 0, i32 8
  %20 = load i32, ptr %19, align 8
  %21 = lshr i32 %20, 20
  %22 = and i32 %21, 1
  %23 = icmp eq i32 %22, 1
  br i1 %23, label %24, label %34

24:                                               ; preds = %15
  %25 = load ptr, ptr %4, align 8, !tbaa !3
  %26 = getelementptr inbounds nuw %struct._lv_obj_t, ptr %25, i32 0, i32 0
  %27 = load ptr, ptr %26, align 8, !tbaa !12
  %28 = getelementptr inbounds nuw %struct._lv_obj_class_t, ptr %27, i32 0, i32 0
  %29 = load ptr, ptr %28, align 8, !tbaa !21
  %30 = load ptr, ptr %4, align 8, !tbaa !3
  %31 = getelementptr inbounds nuw %struct._lv_obj_t, ptr %30, i32 0, i32 0
  store ptr %29, ptr %31, align 8, !tbaa !12
  %32 = load ptr, ptr %3, align 8, !tbaa !10
  %33 = load ptr, ptr %4, align 8, !tbaa !3
  call void @apply_theme_recursion(ptr noundef %32, ptr noundef %33)
  br label %34

34:                                               ; preds = %24, %15, %2
  %35 = load ptr, ptr %5, align 8, !tbaa !20
  %36 = load ptr, ptr %4, align 8, !tbaa !3
  %37 = getelementptr inbounds nuw %struct._lv_obj_t, ptr %36, i32 0, i32 0
  store ptr %35, ptr %37, align 8, !tbaa !12
  %38 = load ptr, ptr %3, align 8, !tbaa !10
  %39 = load ptr, ptr %4, align 8, !tbaa !3
  call void @apply_theme(ptr noundef %38, ptr noundef %39)
  call void @llvm.lifetime.end.p0(i64 8, ptr %5) #4
  ret void
}