; Function Attrs: nounwind uwtable
define internal fastcc void @apply_theme_recursion(ptr noundef nonnull %0, ptr noundef %1) unnamed_addr #0 {
  %3 = load ptr, ptr %1, align 8, !tbaa !3
  %4 = load ptr, ptr %3, align 8, !tbaa !15
  %.not = icmp eq ptr %4, null
  br i1 %.not, label %10, label %5

5:                                                ; preds = %2
  %6 = getelementptr inbounds nuw i8, ptr %3, i64 56
  %7 = load i32, ptr %6, align 8
  %8 = and i32 %7, 1048576
  %.not11 = icmp eq i32 %8, 0
  br i1 %.not11, label %10, label %9

9:                                                ; preds = %5
  store ptr %4, ptr %1, align 8, !tbaa !3
  tail call fastcc void @apply_theme_recursion(ptr noundef %0, ptr noundef nonnull %1)
  br label %10

10:                                               ; preds = %9, %5, %2
  store ptr %3, ptr %1, align 8, !tbaa !3
  tail call fastcc void @apply_theme(ptr noundef %0, ptr noundef nonnull %1)
  ret void
}